target datalayout = "e-m:e-p270:32:32-p271:32:32-p272:64:64-i64:64-i128:128-f80:128-n8:16:32:64-S128"
target triple = "x86_64-pc-linux-gnu"

%struct.mspack_system = type { ptr, ptr, ptr, ptr, ptr, ptr, ptr, ptr, ptr, ptr, ptr }
%struct.mscab_decompressor_p = type { %struct.mscab_decompressor, ptr, ptr, i32, i32, i32, i32, i32, i32 }
%struct.mscab_decompressor = type { ptr, ptr, ptr, ptr, ptr, ptr, ptr, ptr }

@mspack_default_system = external global ptr, align 8

; Function Attrs: nounwind uwtable
define ptr @mspack_create_cab_decompressor(ptr noundef %0) #0 {
  %2 = alloca ptr, align 8
  %3 = alloca ptr, align 8
  %4 = alloca ptr, align 8
  %5 = alloca i32, align 4
  store ptr %0, ptr %3, align 8, !tbaa !3
  call void @llvm.lifetime.start.p0(i64 8, ptr %4) #4
  store ptr null, ptr %4, align 8, !tbaa !8
  %6 = load ptr, ptr %3, align 8, !tbaa !3
  %7 = icmp ne ptr %6, null
  br i1 %7, label %10, label %8

8:                                                ; preds = %1
  %9 = load ptr, ptr @mspack_default_system, align 8, !tbaa !3
  store ptr %9, ptr %3, align 8, !tbaa !3
  br label %10

10:                                               ; preds = %8, %1
  %11 = load ptr, ptr %3, align 8, !tbaa !3
  %12 = call i32 @mspack_valid_system(ptr noundef %11)
  %13 = icmp ne i32 %12, 0
  br i1 %13, label %15, label %14

14:                                               ; preds = %10
  store ptr null, ptr %2, align 8
  store i32 1, ptr %5, align 4
  br label %64

15:                                               ; preds = %10
  %16 = load ptr, ptr %3, align 8, !tbaa !3
  %17 = getelementptr inbounds nuw %struct.mspack_system, ptr %16, i32 0, i32 7
  %18 = load ptr, ptr %17, align 8, !tbaa !10
  %19 = load ptr, ptr %3, align 8, !tbaa !3
  %20 = call ptr %18(ptr noundef %19, i64 noundef 104)
  store ptr %20, ptr %4, align 8, !tbaa !8
  %21 = icmp ne ptr %20, null
  br i1 %21, label %22, label %62

22:                                               ; preds = %15
  %23 = load ptr, ptr %4, align 8, !tbaa !8
  %24 = getelementptr inbounds nuw %struct.mscab_decompressor_p, ptr %23, i32 0, i32 0
  %25 = getelementptr inbounds nuw %struct.mscab_decompressor, ptr %24, i32 0, i32 0
  store ptr @cabd_open, ptr %25, align 8, !tbaa !12
  %26 = load ptr, ptr %4, align 8, !tbaa !8
  %27 = getelementptr inbounds nuw %struct.mscab_decompressor_p, ptr %26, i32 0, i32 0
  %28 = getelementptr inbounds nuw %struct.mscab_decompressor, ptr %27, i32 0, i32 1
  store ptr @cabd_close, ptr %28, align 8, !tbaa !17
  %29 = load ptr, ptr %4, align 8, !tbaa !8
  %30 = getelementptr inbounds nuw %struct.mscab_decompressor_p, ptr %29, i32 0, i32 0
  %31 = getelementptr inbounds nuw %struct.mscab_decompressor, ptr %30, i32 0, i32 2
  store ptr @cabd_search, ptr %31, align 8, !tbaa !18
  %32 = load ptr, ptr %4, align 8, !tbaa !8
  %33 = getelementptr inbounds nuw %struct.mscab_decompressor_p, ptr %32, i32 0, i32 0
  %34 = getelementptr inbounds nuw %struct.mscab_decompressor, ptr %33, i32 0, i32 5
  store ptr @cabd_extract, ptr %34, align 8, !tbaa !19
  %35 = load ptr, ptr %4, align 8, !tbaa !8
  %36 = getelementptr inbounds nuw %struct.mscab_decompressor_p, ptr %35, i32 0, i32 0
  %37 = getelementptr inbounds nuw %struct.mscab_decompressor, ptr %36, i32 0, i32 4
  store ptr @cabd_prepend, ptr %37, align 8, !tbaa !20
  %38 = load ptr, ptr %4, align 8, !tbaa !8
  %39 = getelementptr inbounds nuw %struct.mscab_decompressor_p, ptr %38, i32 0, i32 0
  %40 = getelementptr inbounds nuw %struct.mscab_decompressor, ptr %39, i32 0, i32 3
  store ptr @cabd_append, ptr %40, align 8, !tbaa !21
  %41 = load ptr, ptr %4, align 8, !tbaa !8
  %42 = getelementptr inbounds nuw %struct.mscab_decompressor_p, ptr %41, i32 0, i32 0
  %43 = getelementptr inbounds nuw %struct.mscab_decompressor, ptr %42, i32 0, i32 6
  store ptr @cabd_param, ptr %43, align 8, !tbaa !22
  %44 = load ptr, ptr %4, align 8, !tbaa !8
  %45 = getelementptr inbounds nuw %struct.mscab_decompressor_p, ptr %44, i32 0, i32 0
  %46 = getelementptr inbounds nuw %struct.mscab_decompressor, ptr %45, i32 0, i32 7
  store ptr @cabd_error, ptr %46, align 8, !tbaa !23
  %47 = load ptr, ptr %3, align 8, !tbaa !3
  %48 = load ptr, ptr %4, align 8, !tbaa !8
  %49 = getelementptr inbounds nuw %struct.mscab_decompressor_p, ptr %48, i32 0, i32 2
  store ptr %47, ptr %49, align 8, !tbaa !24
  %50 = load ptr, ptr %4, align 8, !tbaa !8
  %51 = getelementptr inbounds nuw %struct.mscab_decompressor_p, ptr %50, i32 0, i32 1
  store ptr null, ptr %51, align 8, !tbaa !25
  %52 = load ptr, ptr %4, align 8, !tbaa !8
  %53 = getelementptr inbounds nuw %struct.mscab_decompressor_p, ptr %52, i32 0, i32 7
  store i32 0, ptr %53, align 8, !tbaa !26
  %54 = load ptr, ptr %4, align 8, !tbaa !8
  %55 = getelementptr inbounds nuw %struct.mscab_decompressor_p, ptr %54, i32 0, i32 4
  store i32 32768, ptr %55, align 4, !tbaa !27
  %56 = load ptr, ptr %4, align 8, !tbaa !8
  %57 = getelementptr inbounds nuw %struct.mscab_decompressor_p, ptr %56, i32 0, i32 5
  store i32 0, ptr %57, align 8, !tbaa !28
  %58 = load ptr, ptr %4, align 8, !tbaa !8
  %59 = getelementptr inbounds nuw %struct.mscab_decompressor_p, ptr %58, i32 0, i32 3
  store i32 4096, ptr %59, align 8, !tbaa !29
  %60 = load ptr, ptr %4, align 8, !tbaa !8
  %61 = getelementptr inbounds nuw %struct.mscab_decompressor_p, ptr %60, i32 0, i32 6
  store i32 0, ptr %61, align 4, !tbaa !30
  br label %62

62:                                               ; preds = %22, %15
  %63 = load ptr, ptr %4, align 8, !tbaa !8
  store ptr %63, ptr %2, align 8
  store i32 1, ptr %5, align 4
  br label %64

64:                                               ; preds = %62, %14
  call void @llvm.lifetime.end.p0(i64 8, ptr %4) #4
  %65 = load ptr, ptr %2, align 8
  ret ptr %65
}