; Function Attrs: nounwind uwtable
define ptr @mspack_create_cab_decompressor(ptr noundef %0) local_unnamed_addr #0 {
  %.not = icmp eq ptr %0, null
  %2 = load ptr, ptr @mspack_default_system, align 8
  %spec.select = select i1 %.not, ptr %2, ptr %0
  %3 = tail call i32 @mspack_valid_system(ptr noundef %spec.select) #8
  %.not25 = icmp eq i32 %3, 0
  br i1 %.not25, label %23, label %4

4:                                                ; preds = %1
  %5 = getelementptr inbounds nuw i8, ptr %spec.select, i64 56
  %6 = load ptr, ptr %5, align 8, !tbaa !3
  %7 = tail call ptr %6(ptr noundef %spec.select, i64 noundef 104) #8
  %.not26 = icmp eq ptr %7, null
  br i1 %.not26, label %23, label %8

8:                                                ; preds = %4
  store ptr @cabd_open, ptr %7, align 8, !tbaa !8
  %9 = getelementptr inbounds nuw i8, ptr %7, i64 8
  store ptr @cabd_close, ptr %9, align 8, !tbaa !14
  %10 = getelementptr inbounds nuw i8, ptr %7, i64 16
  store ptr @cabd_search, ptr %10, align 8, !tbaa !15
  %11 = getelementptr inbounds nuw i8, ptr %7, i64 40
  store ptr @cabd_extract, ptr %11, align 8, !tbaa !16
  %12 = getelementptr inbounds nuw i8, ptr %7, i64 32
  store ptr @cabd_prepend, ptr %12, align 8, !tbaa !17
  %13 = getelementptr inbounds nuw i8, ptr %7, i64 24
  store ptr @cabd_append, ptr %13, align 8, !tbaa !18
  %14 = getelementptr inbounds nuw i8, ptr %7, i64 48
  store ptr @cabd_param, ptr %14, align 8, !tbaa !19
  %15 = getelementptr inbounds nuw i8, ptr %7, i64 56
  store ptr @cabd_error, ptr %15, align 8, !tbaa !20
  %16 = getelementptr inbounds nuw i8, ptr %7, i64 72
  store ptr %spec.select, ptr %16, align 8, !tbaa !21
  %17 = getelementptr inbounds nuw i8, ptr %7, i64 64
  store ptr null, ptr %17, align 8, !tbaa !22
  %18 = getelementptr inbounds nuw i8, ptr %7, i64 96
  store i32 0, ptr %18, align 8, !tbaa !23
  %19 = getelementptr inbounds nuw i8, ptr %7, i64 84
  store i32 32768, ptr %19, align 4, !tbaa !24
  %20 = getelementptr inbounds nuw i8, ptr %7, i64 88
  store i32 0, ptr %20, align 8, !tbaa !25
  %21 = getelementptr inbounds nuw i8, ptr %7, i64 80
  store i32 4096, ptr %21, align 8, !tbaa !26
  %22 = getelementptr inbounds nuw i8, ptr %7, i64 92
  store i32 0, ptr %22, align 4, !tbaa !27
  br label %23

23:                                               ; preds = %4, %8, %1
  %.022 = phi ptr [ null, %1 ], [ %7, %8 ], [ null, %4 ]
  ret ptr %.022
}